target datalayout = "e-m:e-p270:32:32-p271:32:32-p272:64:64-i64:64-i128:128-f80:128-n8:16:32:64-S128"
target triple = "x86_64-pc-linux-gnu"

%struct.Expr = type { i32 }
%union.ListCell = type { ptr }
%struct.Node = type { i32 }
%struct.FuncExpr = type { %struct.Expr, i32, i32, i8, i8, i32, i32, i32, ptr, i32 }
%struct.Param = type { %struct.Expr, i32, i32, i32, i32, i32, i32 }

; Function Attrs: inlinehint nounwind uwtable
define internal ptr @newNode(i64 noundef %0, i32 noundef %1) #2 {
  %3 = alloca i64, align 8
  %4 = alloca i32, align 4
  %5 = alloca ptr, align 8
  store i64 %0, ptr %3, align 8
  store i32 %1, ptr %4, align 4
  call void @llvm.lifetime.start.p0(i64 8, ptr %5) #7
  %6 = load i64, ptr %3, align 8
  %7 = call ptr @palloc0(i64 noundef %6)
  store ptr %7, ptr %5, align 8
  %8 = load i32, ptr %4, align 4
  %9 = load ptr, ptr %5, align 8
  %10 = getelementptr inbounds nuw %struct.Node, ptr %9, i32 0, i32 0
  store i32 %8, ptr %10, align 4
  %11 = load ptr, ptr %5, align 8
  call void @llvm.lifetime.end.p0(i64 8, ptr %5) #7
  ret ptr %11
}

; Function Attrs: nounwind uwtable
define internal ptr @make_agg_arg(i32 noundef %0, i32 noundef %1) #0 {
  %3 = alloca i32, align 4
  %4 = alloca i32, align 4
  %5 = alloca ptr, align 8
  store i32 %0, ptr %3, align 4
  store i32 %1, ptr %4, align 4
  call void @llvm.lifetime.start.p0(i64 8, ptr %5) #7
  %6 = call ptr @newNode(i64 noundef 28, i32 noundef 8)
  store ptr %6, ptr %5, align 8
  %7 = load ptr, ptr %5, align 8
  %8 = getelementptr inbounds nuw %struct.Param, ptr %7, i32 0, i32 1
  store i32 1, ptr %8, align 4
  %9 = load ptr, ptr %5, align 8
  %10 = getelementptr inbounds nuw %struct.Param, ptr %9, i32 0, i32 2
  store i32 -1, ptr %10, align 4
  %11 = load i32, ptr %3, align 4
  %12 = load ptr, ptr %5, align 8
  %13 = getelementptr inbounds nuw %struct.Param, ptr %12, i32 0, i32 3
  store i32 %11, ptr %13, align 4
  %14 = load ptr, ptr %5, align 8
  %15 = getelementptr inbounds nuw %struct.Param, ptr %14, i32 0, i32 4
  store i32 -1, ptr %15, align 4
  %16 = load i32, ptr %4, align 4
  %17 = load ptr, ptr %5, align 8
  %18 = getelementptr inbounds nuw %struct.Param, ptr %17, i32 0, i32 5
  store i32 %16, ptr %18, align 4
  %19 = load ptr, ptr %5, align 8
  %20 = getelementptr inbounds nuw %struct.Param, ptr %19, i32 0, i32 6
  store i32 -1, ptr %20, align 4
  %21 = load ptr, ptr %5, align 8
  call void @llvm.lifetime.end.p0(i64 8, ptr %5) #7
  ret ptr %21
}

; Function Attrs: nounwind uwtable
define dso_local void @build_aggregate_transfn_expr(ptr noundef %0, i32 noundef %1, i32 noundef %2, i1 noundef zeroext %3, i32 noundef %4, i32 noundef %5, i32 noundef %6, i32 noundef %7, ptr noundef %8, ptr noundef %9) #0 {
  %11 = alloca ptr, align 8
  %12 = alloca i32, align 4
  %13 = alloca i32, align 4
  %14 = alloca i8, align 1
  %15 = alloca i32, align 4
  %16 = alloca i32, align 4
  %17 = alloca i32, align 4
  %18 = alloca i32, align 4
  %19 = alloca ptr, align 8
  %20 = alloca ptr, align 8
  %21 = alloca ptr, align 8
  %22 = alloca ptr, align 8
  %23 = alloca i32, align 4
  %24 = alloca %union.ListCell, align 8
  store ptr %0, ptr %11, align 8
  store i32 %1, ptr %12, align 4
  store i32 %2, ptr %13, align 4
  %25 = zext i1 %3 to i8
  store i8 %25, ptr %14, align 1
  store i32 %4, ptr %15, align 4
  store i32 %5, ptr %16, align 4
  store i32 %6, ptr %17, align 4
  store i32 %7, ptr %18, align 4
  store ptr %8, ptr %19, align 8
  store ptr %9, ptr %20, align 8
  call void @llvm.lifetime.start.p0(i64 8, ptr %21) #7
  call void @llvm.lifetime.start.p0(i64 8, ptr %22) #7
  call void @llvm.lifetime.start.p0(i64 4, ptr %23) #7
  %26 = load i32, ptr %15, align 4
  %27 = load i32, ptr %16, align 4
  %28 = call ptr @make_agg_arg(i32 noundef %26, i32 noundef %27)
  store ptr %28, ptr %24, align 8
  %29 = getelementptr inbounds nuw %union.ListCell, ptr %24, i32 0, i32 0
  %30 = load ptr, ptr %29, align 8
  %31 = call ptr @list_make1_impl(i32 noundef 1, ptr %30)
  store ptr %31, ptr %21, align 8
  %32 = load i32, ptr %13, align 4
  store i32 %32, ptr %23, align 4
  br label %33

33:                                               ; preds = %47, %10
  %34 = load i32, ptr %23, align 4
  %35 = load i32, ptr %12, align 4
  %36 = icmp slt i32 %34, %35
  br i1 %36, label %37, label %50

37:                                               ; preds = %33
  %38 = load ptr, ptr %21, align 8
  %39 = load ptr, ptr %11, align 8
  %40 = load i32, ptr %23, align 4
  %41 = sext i32 %40 to i64
  %42 = getelementptr inbounds i32, ptr %39, i64 %41
  %43 = load i32, ptr %42, align 4
  %44 = load i32, ptr %16, align 4
  %45 = call ptr @make_agg_arg(i32 noundef %43, i32 noundef %44)
  %46 = call ptr @lappend(ptr noundef %38, ptr noundef %45)
  store ptr %46, ptr %21, align 8
  br label %47

47:                                               ; preds = %37
  %48 = load i32, ptr %23, align 4
  %49 = add i32 %48, 1
  store i32 %49, ptr %23, align 4
  br label %33, !llvm.loop !35

50:                                               ; preds = %33
  %51 = load i32, ptr %17, align 4
  %52 = load i32, ptr %15, align 4
  %53 = load ptr, ptr %21, align 8
  %54 = load i32, ptr %16, align 4
  %55 = call ptr @makeFuncExpr(i32 noundef %51, i32 noundef %52, ptr noundef %53, i32 noundef 0, i32 noundef %54, i32 noundef 0)
  store ptr %55, ptr %22, align 8
  %56 = load i8, ptr %14, align 1, !range !7, !noundef !8
  %57 = trunc i8 %56 to i1
  %58 = load ptr, ptr %22, align 8
  %59 = getelementptr inbounds nuw %struct.FuncExpr, ptr %58, i32 0, i32 4
  %60 = zext i1 %57 to i8
  store i8 %60, ptr %59, align 1
  %61 = load ptr, ptr %22, align 8
  %62 = load ptr, ptr %19, align 8
  store ptr %61, ptr %62, align 8
  %63 = load ptr, ptr %20, align 8
  %64 = icmp ne ptr %63, null
  br i1 %64, label %65, label %84

65:                                               ; preds = %50
  %66 = load i32, ptr %18, align 4
  %67 = icmp ne i32 %66, 0
  br i1 %67, label %68, label %81

68:                                               ; preds = %65
  %69 = load i32, ptr %18, align 4
  %70 = load i32, ptr %15, align 4
  %71 = load ptr, ptr %21, align 8
  %72 = load i32, ptr %16, align 4
  %73 = call ptr @makeFuncExpr(i32 noundef %69, i32 noundef %70, ptr noundef %71, i32 noundef 0, i32 noundef %72, i32 noundef 0)
  store ptr %73, ptr %22, align 8
  %74 = load i8, ptr %14, align 1, !range !7, !noundef !8
  %75 = trunc i8 %74 to i1
  %76 = load ptr, ptr %22, align 8
  %77 = getelementptr inbounds nuw %struct.FuncExpr, ptr %76, i32 0, i32 4
  %78 = zext i1 %75 to i8
  store i8 %78, ptr %77, align 1
  %79 = load ptr, ptr %22, align 8
  %80 = load ptr, ptr %20, align 8
  store ptr %79, ptr %80, align 8
  br label %83

81:                                               ; preds = %65
  %82 = load ptr, ptr %20, align 8
  store ptr null, ptr %82, align 8
  br label %83

83:                                               ; preds = %81, %68
  br label %84

84:                                               ; preds = %83, %50
  call void @llvm.lifetime.end.p0(i64 4, ptr %23) #7
  call void @llvm.lifetime.end.p0(i64 8, ptr %22) #7
  call void @llvm.lifetime.end.p0(i64 8, ptr %21) #7
  ret void
}